target datalayout = "e-m:e-p270:32:32-p271:32:32-p272:64:64-i64:64-i128:128-f80:128-n8:16:32:64-S128"
target triple = "x86_64-pc-linux-gnu"

%class.toku_instr_key = type { i8 }
%"class.toku::treenode" = type <{ %struct.toku_mutex_t, %"class.toku::keyrange", i64, i8, [7 x i8], ptr, %"struct.toku::treenode::child_ptr", %"struct.toku::treenode::child_ptr", ptr, i8, i8, [6 x i8] }>
%struct.toku_mutex_t = type { %union.pthread_mutex_t, ptr }
%union.pthread_mutex_t = type { %struct.__pthread_mutex_s }
%struct.__pthread_mutex_s = type { i32, i32, i32, i32, i32, i16, i16, %struct.__pthread_internal_list }
%struct.__pthread_internal_list = type { ptr, ptr }
%"class.toku::keyrange" = type <{ %struct.__toku_dbt, %struct.__toku_dbt, ptr, ptr, i8, [7 x i8] }>
%struct.__toku_dbt = type { ptr, i64, i64, i32 }
%"struct.toku::treenode::child_ptr" = type { ptr, i32 }
%union.pthread_mutexattr_t = type { i32 }

@treenode_mutex_key = external global %class.toku_instr_key, align 1

; Function Attrs: mustprogress nounwind uwtable
define noundef i32 @_ZNK4toku8treenode18get_depth_estimateEv(ptr noundef nonnull align 8 dereferenceable(202) %0) #5 align 2 {
  %2 = alloca ptr, align 8
  %3 = alloca i32, align 4
  %4 = alloca i32, align 4
  store ptr %0, ptr %2, align 8, !tbaa !4
  %5 = load ptr, ptr %2, align 8
  call void @llvm.lifetime.start.p0(i64 4, ptr %3) #16
  %6 = getelementptr inbounds nuw %"class.toku::treenode", ptr %5, i32 0, i32 6
  %7 = getelementptr inbounds nuw %"struct.toku::treenode::child_ptr", ptr %6, i32 0, i32 1
  %8 = load i32, ptr %7, align 8, !tbaa !54
  store i32 %8, ptr %3, align 4, !tbaa !13
  call void @llvm.lifetime.start.p0(i64 4, ptr %4) #16
  %9 = getelementptr inbounds nuw %"class.toku::treenode", ptr %5, i32 0, i32 7
  %10 = getelementptr inbounds nuw %"struct.toku::treenode::child_ptr", ptr %9, i32 0, i32 1
  %11 = load i32, ptr %10, align 8, !tbaa !55
  store i32 %11, ptr %4, align 4, !tbaa !13
  %12 = load i32, ptr %3, align 4, !tbaa !13
  %13 = load i32, ptr %4, align 4, !tbaa !13
  %14 = icmp ugt i32 %12, %13
  br i1 %14, label %15, label %17

15:                                               ; preds = %1
  %16 = load i32, ptr %3, align 4, !tbaa !13
  br label %19

17:                                               ; preds = %1
  %18 = load i32, ptr %4, align 4, !tbaa !13
  br label %19

19:                                               ; preds = %17, %15
  %20 = phi i32 [ %16, %15 ], [ %18, %17 ]
  %21 = add i32 %20, 1
  call void @llvm.lifetime.end.p0(i64 4, ptr %4) #16
  call void @llvm.lifetime.end.p0(i64 4, ptr %3) #16
  ret i32 %21
}

; Function Attrs: inlinehint mustprogress nounwind uwtable
define linkonce_odr noundef ptr @_Z21toku_instr_mutex_initRK14toku_instr_keyR12toku_mutex_t(ptr noundef nonnull align 1 dereferenceable(1) %0, ptr noundef nonnull align 8 dereferenceable(48) %1) #4 comdat {
  %3 = alloca ptr, align 8
  %4 = alloca ptr, align 8
  store ptr %0, ptr %3, align 8, !tbaa !35
  store ptr %1, ptr %4, align 8, !tbaa !9
  ret ptr null
}

; Function Attrs: mustprogress nounwind uwtable
define void @_ZN4toku8treenode9child_ptr3setEPS0_(ptr noundef nonnull align 8 dereferenceable(16) %0, ptr noundef %1) #5 align 2 {
  %3 = alloca ptr, align 8
  %4 = alloca ptr, align 8
  store ptr %0, ptr %3, align 8, !tbaa !37
  store ptr %1, ptr %4, align 8, !tbaa !4
  %5 = load ptr, ptr %3, align 8
  %6 = load ptr, ptr %4, align 8, !tbaa !4
  %7 = getelementptr inbounds nuw %"struct.toku::treenode::child_ptr", ptr %5, i32 0, i32 0
  store ptr %6, ptr %7, align 8, !tbaa !39
  %8 = getelementptr inbounds nuw %"struct.toku::treenode::child_ptr", ptr %5, i32 0, i32 0
  %9 = load ptr, ptr %8, align 8, !tbaa !39
  %10 = icmp ne ptr %9, null
  br i1 %10, label %11, label %15

11:                                               ; preds = %2
  %12 = getelementptr inbounds nuw %"struct.toku::treenode::child_ptr", ptr %5, i32 0, i32 0
  %13 = load ptr, ptr %12, align 8, !tbaa !39
  %14 = call noundef i32 @_ZNK4toku8treenode18get_depth_estimateEv(ptr noundef nonnull align 8 dereferenceable(202) %13)
  br label %16

15:                                               ; preds = %2
  br label %16

16:                                               ; preds = %15, %11
  %17 = phi i32 [ %14, %11 ], [ 0, %15 ]
  %18 = getelementptr inbounds nuw %"struct.toku::treenode::child_ptr", ptr %5, i32 0, i32 1
  store i32 %17, ptr %18, align 8, !tbaa !40
  ret void
}

; Function Attrs: inlinehint mustprogress nounwind uwtable
define internal void @_ZL22toku_mutexattr_destroyP19pthread_mutexattr_t(ptr noundef %0) #4 {
  %2 = alloca ptr, align 8
  %3 = alloca i32, align 4
  store ptr %0, ptr %2, align 8, !tbaa !34
  call void @llvm.lifetime.start.p0(i64 4, ptr %3) #16
  %4 = load ptr, ptr %2, align 8, !tbaa !34
  %5 = call i32 @pthread_mutexattr_destroy(ptr noundef %4) #16
  store i32 %5, ptr %3, align 4, !tbaa !13
  call void @llvm.lifetime.end.p0(i64 4, ptr %3) #16
  ret void
}

; Function Attrs: inlinehint mustprogress uwtable
define linkonce_odr void @_Z15toku_mutex_initRK14toku_instr_keyP12toku_mutex_tPK19pthread_mutexattr_t(ptr noundef nonnull align 1 dereferenceable(1) %0, ptr noundef %1, ptr noundef %2) #1 comdat {
  %4 = alloca ptr, align 8
  %5 = alloca ptr, align 8
  %6 = alloca ptr, align 8
  %7 = alloca i32, align 4
  store ptr %0, ptr %4, align 8, !tbaa !35
  store ptr %1, ptr %5, align 8, !tbaa !9
  store ptr %2, ptr %6, align 8, !tbaa !34
  %8 = load ptr, ptr %4, align 8, !tbaa !35
  %9 = load ptr, ptr %5, align 8, !tbaa !9
  %10 = call noundef ptr @_Z21toku_instr_mutex_initRK14toku_instr_keyR12toku_mutex_t(ptr noundef nonnull align 1 dereferenceable(1) %8, ptr noundef nonnull align 8 dereferenceable(48) %9)
  call void @llvm.lifetime.start.p0(i64 4, ptr %7) #16
  %11 = load ptr, ptr %5, align 8, !tbaa !9
  %12 = getelementptr inbounds nuw %struct.toku_mutex_t, ptr %11, i32 0, i32 0
  %13 = load ptr, ptr %6, align 8, !tbaa !34
  %14 = call i32 @pthread_mutex_init(ptr noundef %12, ptr noundef %13) #16
  store i32 %14, ptr %7, align 4, !tbaa !13
  call void @llvm.lifetime.end.p0(i64 4, ptr %7) #16
  ret void
}

; Function Attrs: inlinehint mustprogress nounwind uwtable
define internal void @_ZL22toku_mutexattr_settypeP19pthread_mutexattr_ti(ptr noundef %0, i32 noundef %1) #4 {
  %3 = alloca ptr, align 8
  %4 = alloca i32, align 4
  %5 = alloca i32, align 4
  store ptr %0, ptr %3, align 8, !tbaa !34
  store i32 %1, ptr %4, align 4, !tbaa !13
  call void @llvm.lifetime.start.p0(i64 4, ptr %5) #16
  %6 = load ptr, ptr %3, align 8, !tbaa !34
  %7 = load i32, ptr %4, align 4, !tbaa !13
  %8 = call i32 @pthread_mutexattr_settype(ptr noundef %6, i32 noundef %7) #16
  store i32 %8, ptr %5, align 4, !tbaa !13
  call void @llvm.lifetime.end.p0(i64 4, ptr %5) #16
  ret void
}

; Function Attrs: inlinehint mustprogress nounwind uwtable
define internal void @_ZL19toku_mutexattr_initP19pthread_mutexattr_t(ptr noundef %0) #4 {
  %2 = alloca ptr, align 8
  %3 = alloca i32, align 4
  store ptr %0, ptr %2, align 8, !tbaa !34
  call void @llvm.lifetime.start.p0(i64 4, ptr %3) #16
  %4 = load ptr, ptr %2, align 8, !tbaa !34
  %5 = call i32 @pthread_mutexattr_init(ptr noundef %4) #16
  store i32 %5, ptr %3, align 4, !tbaa !13
  call void @llvm.lifetime.end.p0(i64 4, ptr %3) #16
  ret void
}

; Function Attrs: mustprogress uwtable
define void @_ZN4toku8treenode4initEPKNS_10comparatorE(ptr noundef nonnull align 8 dereferenceable(202) %0, ptr noundef %1) #0 align 2 {
  %3 = alloca ptr, align 8
  %4 = alloca ptr, align 8
  %5 = alloca %union.pthread_mutexattr_t, align 4
  store ptr %0, ptr %3, align 8, !tbaa !4
  store ptr %1, ptr %4, align 8, !tbaa !18
  %6 = load ptr, ptr %3, align 8
  %7 = getelementptr inbounds nuw %"class.toku::treenode", ptr %6, i32 0, i32 2
  store i64 0, ptr %7, align 8, !tbaa !20
  %8 = getelementptr inbounds nuw %"class.toku::treenode", ptr %6, i32 0, i32 9
  store i8 0, ptr %8, align 8, !tbaa !29
  %9 = getelementptr inbounds nuw %"class.toku::treenode", ptr %6, i32 0, i32 10
  store i8 1, ptr %9, align 1, !tbaa !30
  %10 = load ptr, ptr %4, align 8, !tbaa !18
  %11 = getelementptr inbounds nuw %"class.toku::treenode", ptr %6, i32 0, i32 8
  store ptr %10, ptr %11, align 8, !tbaa !31
  %12 = getelementptr inbounds nuw %"class.toku::treenode", ptr %6, i32 0, i32 3
  store i8 0, ptr %12, align 8, !tbaa !32
  %13 = getelementptr inbounds nuw %"class.toku::treenode", ptr %6, i32 0, i32 5
  store ptr null, ptr %13, align 8, !tbaa !33
  %14 = getelementptr inbounds nuw %"class.toku::treenode", ptr %6, i32 0, i32 0
  call void @llvm.memset.p0.i64(ptr align 8 %14, i8 0, i64 48, i1 false)
  call void @llvm.lifetime.start.p0(i64 4, ptr %5) #16
  call void @_ZL19toku_mutexattr_initP19pthread_mutexattr_t(ptr noundef %5)
  call void @_ZL22toku_mutexattr_settypeP19pthread_mutexattr_ti(ptr noundef %5, i32 noundef 3)
  %15 = getelementptr inbounds nuw %"class.toku::treenode", ptr %6, i32 0, i32 0
  call void @_Z15toku_mutex_initRK14toku_instr_keyP12toku_mutex_tPK19pthread_mutexattr_t(ptr noundef nonnull align 1 dereferenceable(1) @treenode_mutex_key, ptr noundef %15, ptr noundef %5)
  call void @_ZL22toku_mutexattr_destroyP19pthread_mutexattr_t(ptr noundef %5)
  %16 = getelementptr inbounds nuw %"class.toku::treenode", ptr %6, i32 0, i32 6
  call void @_ZN4toku8treenode9child_ptr3setEPS0_(ptr noundef nonnull align 8 dereferenceable(16) %16, ptr noundef null)
  %17 = getelementptr inbounds nuw %"class.toku::treenode", ptr %6, i32 0, i32 7
  call void @_ZN4toku8treenode9child_ptr3setEPS0_(ptr noundef nonnull align 8 dereferenceable(16) %17, ptr noundef null)
  call void @llvm.lifetime.end.p0(i64 4, ptr %5) #16
  ret void
}

; Function Attrs: mustprogress uwtable
define void @_ZN4toku8treenode11create_rootEPKNS_10comparatorE(ptr noundef nonnull align 8 dereferenceable(202) %0, ptr noundef %1) #0 align 2 {
  %3 = alloca ptr, align 8
  %4 = alloca ptr, align 8
  store ptr %0, ptr %3, align 8, !tbaa !4
  store ptr %1, ptr %4, align 8, !tbaa !18
  %5 = load ptr, ptr %3, align 8
  %6 = load ptr, ptr %4, align 8, !tbaa !18
  call void @_ZN4toku8treenode4initEPKNS_10comparatorE(ptr noundef nonnull align 8 dereferenceable(202) %5, ptr noundef %6)
  %7 = getelementptr inbounds nuw %"class.toku::treenode", ptr %5, i32 0, i32 9
  store i8 1, ptr %7, align 8, !tbaa !29
  ret void
}